; Function Attrs: nounwind uwtable
define void @_ZTv0_n24_N5osgeo4proj9operation20PointMotionOperationD0Ev(ptr noundef %0) unnamed_addr #8 align 2 {
  %2 = load ptr, ptr %0, align 8, !tbaa !3
  %3 = getelementptr inbounds i8, ptr %2, i64 -24
  %4 = load i64, ptr %3, align 8
  %5 = getelementptr inbounds i8, ptr %0, i64 %4
  tail call void @_ZN5osgeo4proj9operation20PointMotionOperationD1Ev(ptr noundef nonnull align 8 dereferenceable(16) %5) #46
  tail call void @_ZdlPvm(ptr noundef nonnull align 8 dereferenceable(16) %5, i64 noundef 88) #47
  ret void
}